target datalayout = "e-m:e-p270:32:32-p271:32:32-p272:64:64-i64:64-i128:128-f80:128-n8:16:32:64-S128"
target triple = "x86_64-pc-linux-gnu"

%struct.malloc_chunk = type { i64, i64, ptr, ptr }
%struct.malloc_state = type { i32, i32, i64, i64, ptr, ptr, i64, i64, [66 x ptr], [32 x ptr], %struct.malloc_segment, ptr }
%struct.malloc_segment = type { ptr, i64, ptr }

; Function Attrs: nounwind uwtable
define internal ptr @direct_alloc(ptr noundef %0, i64 noundef %1) #0 {
  %3 = alloca ptr, align 8
  %4 = alloca ptr, align 8
  %5 = alloca i64, align 8
  %6 = alloca i64, align 8
  %7 = alloca ptr, align 8
  %8 = alloca i64, align 8
  %9 = alloca i64, align 8
  %10 = alloca ptr, align 8
  %11 = alloca i32, align 4
  store ptr %0, ptr %4, align 8, !tbaa !15
  store i64 %1, ptr %5, align 8, !tbaa !9
  call void @llvm.lifetime.start.p0(i64 8, ptr %6) #10
  %12 = load i64, ptr %5, align 8, !tbaa !9
  %13 = add i64 %12, 48
  %14 = add i64 %13, 7
  %15 = add i64 %14, 4095
  %16 = and i64 %15, -4096
  store i64 %16, ptr %6, align 8, !tbaa !9
  %17 = load i64, ptr %6, align 8, !tbaa !9
  %18 = load i64, ptr %5, align 8, !tbaa !9
  %19 = icmp ugt i64 %17, %18
  %20 = xor i1 %19, true
  %21 = xor i1 %20, true
  %22 = zext i1 %21 to i32
  %23 = sext i32 %22 to i64
  %24 = call i64 @llvm.expect.i64(i64 %23, i64 1)
  %25 = icmp ne i64 %24, 0
  br i1 %25, label %26, label %80

26:                                               ; preds = %2
  call void @llvm.lifetime.start.p0(i64 8, ptr %7) #10
  %27 = load ptr, ptr %4, align 8, !tbaa !15
  %28 = getelementptr inbounds nuw %struct.malloc_state, ptr %27, i32 0, i32 11
  %29 = load ptr, ptr %28, align 8, !tbaa !37
  %30 = load i64, ptr %6, align 8, !tbaa !9
  %31 = call ptr @mmap_probe(ptr noundef %29, i64 noundef %30)
  store ptr %31, ptr %7, align 8, !tbaa !11
  %32 = load ptr, ptr %7, align 8, !tbaa !11
  %33 = icmp ne ptr %32, inttoptr (i64 -1 to ptr)
  br i1 %33, label %34, label %76

34:                                               ; preds = %26
  call void @llvm.lifetime.start.p0(i64 8, ptr %8) #10
  %35 = load ptr, ptr %7, align 8, !tbaa !11
  %36 = getelementptr inbounds nuw i8, ptr %35, i64 16
  %37 = ptrtoint ptr %36 to i64
  %38 = and i64 %37, 7
  %39 = icmp eq i64 %38, 0
  br i1 %39, label %40, label %41

40:                                               ; preds = %34
  br label %48

41:                                               ; preds = %34
  %42 = load ptr, ptr %7, align 8, !tbaa !11
  %43 = getelementptr inbounds nuw i8, ptr %42, i64 16
  %44 = ptrtoint ptr %43 to i64
  %45 = and i64 %44, 7
  %46 = sub i64 8, %45
  %47 = and i64 %46, 7
  br label %48

48:                                               ; preds = %41, %40
  %49 = phi i64 [ 0, %40 ], [ %47, %41 ]
  store i64 %49, ptr %8, align 8, !tbaa !9
  call void @llvm.lifetime.start.p0(i64 8, ptr %9) #10
  %50 = load i64, ptr %6, align 8, !tbaa !9
  %51 = load i64, ptr %8, align 8, !tbaa !9
  %52 = sub i64 %50, %51
  %53 = sub i64 %52, 32
  store i64 %53, ptr %9, align 8, !tbaa !9
  call void @llvm.lifetime.start.p0(i64 8, ptr %10) #10
  %54 = load ptr, ptr %7, align 8, !tbaa !11
  %55 = load i64, ptr %8, align 8, !tbaa !9
  %56 = getelementptr inbounds nuw i8, ptr %54, i64 %55
  store ptr %56, ptr %10, align 8, !tbaa !13
  %57 = load i64, ptr %8, align 8, !tbaa !9
  %58 = or i64 %57, 1
  %59 = load ptr, ptr %10, align 8, !tbaa !13
  %60 = getelementptr inbounds nuw %struct.malloc_chunk, ptr %59, i32 0, i32 0
  store i64 %58, ptr %60, align 8, !tbaa !43
  %61 = load i64, ptr %9, align 8, !tbaa !9
  %62 = or i64 %61, 2
  %63 = load ptr, ptr %10, align 8, !tbaa !13
  %64 = getelementptr inbounds nuw %struct.malloc_chunk, ptr %63, i32 0, i32 1
  store i64 %62, ptr %64, align 8, !tbaa !17
  %65 = load ptr, ptr %10, align 8, !tbaa !13
  %66 = load i64, ptr %9, align 8, !tbaa !9
  %67 = getelementptr inbounds nuw i8, ptr %65, i64 %66
  %68 = getelementptr inbounds nuw %struct.malloc_chunk, ptr %67, i32 0, i32 1
  store i64 11, ptr %68, align 8, !tbaa !17
  %69 = load ptr, ptr %10, align 8, !tbaa !13
  %70 = load i64, ptr %9, align 8, !tbaa !9
  %71 = add i64 %70, 8
  %72 = getelementptr inbounds nuw i8, ptr %69, i64 %71
  %73 = getelementptr inbounds nuw %struct.malloc_chunk, ptr %72, i32 0, i32 1
  store i64 0, ptr %73, align 8, !tbaa !17
  %74 = load ptr, ptr %10, align 8, !tbaa !13
  %75 = getelementptr inbounds nuw i8, ptr %74, i64 16
  store ptr %75, ptr %3, align 8
  store i32 1, ptr %11, align 4
  call void @llvm.lifetime.end.p0(i64 8, ptr %10) #10
  call void @llvm.lifetime.end.p0(i64 8, ptr %9) #10
  call void @llvm.lifetime.end.p0(i64 8, ptr %8) #10
  br label %77

76:                                               ; preds = %26
  store i32 0, ptr %11, align 4
  br label %77

77:                                               ; preds = %76, %48
  call void @llvm.lifetime.end.p0(i64 8, ptr %7) #10
  %78 = load i32, ptr %11, align 4
  switch i32 %78, label %81 [
    i32 0, label %79
  ]

79:                                               ; preds = %77
  br label %80

80:                                               ; preds = %79, %2
  store ptr null, ptr %3, align 8
  store i32 1, ptr %11, align 4
  br label %81

81:                                               ; preds = %80, %77
  call void @llvm.lifetime.end.p0(i64 8, ptr %6) #10
  %82 = load ptr, ptr %3, align 8
  ret ptr %82
}