; Function Attrs: nounwind uwtable
define internal fastcc ptr @direct_alloc(ptr noundef readonly captures(none) %0, i64 noundef range(i64 131072, 0) %1) unnamed_addr #0 {
  %3 = add i64 %1, 4150
  %4 = and i64 %3, -4096
  %5 = icmp ugt i64 %4, %1
  br i1 %5, label %6, label %.thread, !prof !57

6:                                                ; preds = %2
  %7 = getelementptr inbounds nuw i8, ptr %0, i64 864
  %8 = load ptr, ptr %7, align 8, !tbaa !31
  %9 = tail call fastcc ptr @mmap_probe(ptr noundef %8, i64 noundef %4)
  %.not = icmp eq ptr %9, inttoptr (i64 -1 to ptr)
  br i1 %.not, label %.thread, label %10

10:                                               ; preds = %6
  %11 = getelementptr inbounds nuw i8, ptr %9, i64 16
  %12 = ptrtoint ptr %11 to i64
  %13 = sub i64 0, %12
  %14 = and i64 %13, 7
  %15 = sub nuw i64 %4, %14
  %16 = add i64 %15, -32
  %17 = getelementptr inbounds nuw i8, ptr %9, i64 %14
  %18 = or i64 %14, 1
  store i64 %18, ptr %17, align 8, !tbaa !36
  %19 = or i64 %16, 2
  %20 = getelementptr inbounds nuw i8, ptr %17, i64 8
  store i64 %19, ptr %20, align 8, !tbaa !4
  %21 = getelementptr inbounds nuw i8, ptr %17, i64 %16
  %22 = getelementptr inbounds nuw i8, ptr %21, i64 8
  store i64 11, ptr %22, align 8, !tbaa !4
  %23 = getelementptr i8, ptr %9, i64 %4
  %24 = getelementptr i8, ptr %23, i64 -16
  store i64 0, ptr %24, align 8, !tbaa !4
  %25 = getelementptr inbounds nuw i8, ptr %17, i64 16
  br label %.thread

.thread:                                          ; preds = %6, %2, %10
  %.1 = phi ptr [ %25, %10 ], [ null, %2 ], [ null, %6 ]
  ret ptr %.1
}